target datalayout = "e-m:e-p270:32:32-p271:32:32-p272:64:64-i64:64-i128:128-f80:128-n8:16:32:64-S128"
target triple = "x86_64-pc-linux-gnu"

%"struct.(anonymous namespace)::NinjaMain" = type { %struct.BuildLogUser, ptr, ptr, %struct.State, %struct.RealDiskInterface, %"class.std::__cxx11::basic_string", %struct.BuildLog, %struct.DepsLog, i64 }
%struct.BuildLogUser = type { ptr }
%struct.State = type { %"class.std::unordered_map", %"class.std::map", %"class.std::vector", %struct.BindingEnv, %"class.std::vector.25" }
%"class.std::unordered_map" = type { %"class.std::_Hashtable" }
%"class.std::_Hashtable" = type { ptr, i64, %"struct.std::__detail::_Hash_node_base", i64, %"struct.std::__detail::_Prime_rehash_policy", ptr }
%"struct.std::__detail::_Hash_node_base" = type { ptr }
%"struct.std::__detail::_Prime_rehash_policy" = type { float, i64 }
%"class.std::map" = type { %"class.std::_Rb_tree" }
%"class.std::_Rb_tree" = type { %"struct.std::_Rb_tree<std::__cxx11::basic_string<char>, std::pair<const std::__cxx11::basic_string<char>, Pool *>, std::_Select1st<std::pair<const std::__cxx11::basic_string<char>, Pool *>>, std::less<std::__cxx11::basic_string<char>>>::_Rb_tree_impl" }
%"struct.std::_Rb_tree<std::__cxx11::basic_string<char>, std::pair<const std::__cxx11::basic_string<char>, Pool *>, std::_Select1st<std::pair<const std::__cxx11::basic_string<char>, Pool *>>, std::less<std::__cxx11::basic_string<char>>>::_Rb_tree_impl" = type { %"struct.std::_Rb_tree_key_compare", %"struct.std::_Rb_tree_header" }
%"struct.std::_Rb_tree_key_compare" = type { %"struct.std::less" }
%"struct.std::less" = type { i8 }
%"struct.std::_Rb_tree_header" = type { %"struct.std::_Rb_tree_node_base", i64 }
%"struct.std::_Rb_tree_node_base" = type { i32, ptr, ptr, ptr }
%"class.std::vector" = type { %"struct.std::_Vector_base" }
%"struct.std::_Vector_base" = type { %"struct.std::_Vector_base<Edge *, std::allocator<Edge *>>::_Vector_impl" }
%"struct.std::_Vector_base<Edge *, std::allocator<Edge *>>::_Vector_impl" = type { %"struct.std::_Vector_base<Edge *, std::allocator<Edge *>>::_Vector_impl_data" }
%"struct.std::_Vector_base<Edge *, std::allocator<Edge *>>::_Vector_impl_data" = type { ptr, ptr, ptr }
%struct.BindingEnv = type { %struct.Env, %"class.std::map.15", %"class.std::map.20", ptr }
%struct.Env = type { ptr }
%"class.std::map.15" = type { %"class.std::_Rb_tree.16" }
%"class.std::_Rb_tree.16" = type { %"struct.std::_Rb_tree<std::__cxx11::basic_string<char>, std::pair<const std::__cxx11::basic_string<char>, std::__cxx11::basic_string<char>>, std::_Select1st<std::pair<const std::__cxx11::basic_string<char>, std::__cxx11::basic_string<char>>>, std::less<std::__cxx11::basic_string<char>>>::_Rb_tree_impl" }
%"struct.std::_Rb_tree<std::__cxx11::basic_string<char>, std::pair<const std::__cxx11::basic_string<char>, std::__cxx11::basic_string<char>>, std::_Select1st<std::pair<const std::__cxx11::basic_string<char>, std::__cxx11::basic_string<char>>>, std::less<std::__cxx11::basic_string<char>>>::_Rb_tree_impl" = type { %"struct.std::_Rb_tree_key_compare", %"struct.std::_Rb_tree_header" }
%"class.std::map.20" = type { %"class.std::_Rb_tree.21" }
%"class.std::_Rb_tree.21" = type { %"struct.std::_Rb_tree<std::__cxx11::basic_string<char>, std::pair<const std::__cxx11::basic_string<char>, const Rule *>, std::_Select1st<std::pair<const std::__cxx11::basic_string<char>, const Rule *>>, std::less<std::__cxx11::basic_string<char>>>::_Rb_tree_impl" }
%"struct.std::_Rb_tree<std::__cxx11::basic_string<char>, std::pair<const std::__cxx11::basic_string<char>, const Rule *>, std::_Select1st<std::pair<const std::__cxx11::basic_string<char>, const Rule *>>, std::less<std::__cxx11::basic_string<char>>>::_Rb_tree_impl" = type { %"struct.std::_Rb_tree_key_compare", %"struct.std::_Rb_tree_header" }
%"class.std::vector.25" = type { %"struct.std::_Vector_base.26" }
%"struct.std::_Vector_base.26" = type { %"struct.std::_Vector_base<Node *, std::allocator<Node *>>::_Vector_impl" }
%"struct.std::_Vector_base<Node *, std::allocator<Node *>>::_Vector_impl" = type { %"struct.std::_Vector_base<Node *, std::allocator<Node *>>::_Vector_impl_data" }
%"struct.std::_Vector_base<Node *, std::allocator<Node *>>::_Vector_impl_data" = type { ptr, ptr, ptr }
%struct.RealDiskInterface = type { %struct.DiskInterface }
%struct.DiskInterface = type { %struct.FileReader }
%struct.FileReader = type { ptr }
%"class.std::__cxx11::basic_string" = type { %"struct.std::__cxx11::basic_string<char>::_Alloc_hider", i64, %union.anon }
%"struct.std::__cxx11::basic_string<char>::_Alloc_hider" = type { ptr }
%union.anon = type { i64, [8 x i8] }
%struct.BuildLog = type <{ %"class.std::unordered_map.30", ptr, %"class.std::__cxx11::basic_string", i8, [7 x i8] }>
%"class.std::unordered_map.30" = type { %"class.std::_Hashtable.31" }
%"class.std::_Hashtable.31" = type { ptr, i64, %"struct.std::__detail::_Hash_node_base", i64, %"struct.std::__detail::_Prime_rehash_policy", ptr }
%struct.DepsLog = type { i8, ptr, %"class.std::__cxx11::basic_string", %"class.std::vector.25", %"class.std::vector.44" }
%"class.std::vector.44" = type { %"struct.std::_Vector_base.45" }
%"struct.std::_Vector_base.45" = type { %"struct.std::_Vector_base<DepsLog::Deps *, std::allocator<DepsLog::Deps *>>::_Vector_impl" }
%"struct.std::_Vector_base<DepsLog::Deps *, std::allocator<DepsLog::Deps *>>::_Vector_impl" = type { %"struct.std::_Vector_base<DepsLog::Deps *, std::allocator<DepsLog::Deps *>>::_Vector_impl_data" }
%"struct.std::_Vector_base<DepsLog::Deps *, std::allocator<DepsLog::Deps *>>::_Vector_impl_data" = type { ptr, ptr, ptr }
%struct.StringPiece = type { ptr, i64 }
%"class.std::allocator" = type { i8 }
%struct.Node = type <{ %"class.std::__cxx11::basic_string", i64, i64, i32, i8, i8, i8, i8, ptr, %"class.std::vector", %"class.std::vector", i32, [4 x i8] }>

@.str.3 = private unnamed_addr constant [3 x i8] c"%s\00", align 1

; Function Attrs: mustprogress uwtable
define linkonce_odr dso_local void @_ZNK11StringPiece8AsStringB5cxx11Ev(ptr dead_on_unwind noalias writable sret(%"class.std::__cxx11::basic_string") align 8 %0, ptr noundef nonnull align 8 dereferenceable(16) %1) #2 comdat align 2 personality ptr @__gxx_personality_v0 {
  %3 = alloca ptr, align 8
  %4 = alloca ptr, align 8
  %5 = alloca %"class.std::allocator", align 1
  %6 = alloca i1, align 1
  %7 = alloca ptr, align 8
  %8 = alloca i32, align 4
  store ptr %0, ptr %3, align 8
  store ptr %1, ptr %4, align 8
  %9 = load ptr, ptr %4, align 8
  %10 = getelementptr inbounds %struct.StringPiece, ptr %9, i32 0, i32 1
  %11 = load i64, ptr %10, align 8
  %12 = icmp ne i64 %11, 0
  store i1 false, ptr %6, align 1
  br i1 %12, label %13, label %19

13:                                               ; preds = %2
  %14 = getelementptr inbounds %struct.StringPiece, ptr %9, i32 0, i32 0
  %15 = load ptr, ptr %14, align 8
  %16 = getelementptr inbounds %struct.StringPiece, ptr %9, i32 0, i32 1
  %17 = load i64, ptr %16, align 8
  call void @_ZNSaIcEC1Ev(ptr noundef nonnull align 1 dereferenceable(1) %5) #17
  store i1 true, ptr %6, align 1
  invoke void @_ZNSt7__cxx1112basic_stringIcSt11char_traitsIcESaIcEEC1EPKcmRKS3_(ptr noundef nonnull align 8 dereferenceable(32) %0, ptr noundef %15, i64 noundef %17, ptr noundef nonnull align 1 dereferenceable(1) %5)
          to label %18 unwind label %24

18:                                               ; preds = %13
  br label %20

19:                                               ; preds = %2
  call void @_ZNSt7__cxx1112basic_stringIcSt11char_traitsIcESaIcEEC1Ev(ptr noundef nonnull align 8 dereferenceable(32) %0) #17
  br label %20

20:                                               ; preds = %19, %18
  %21 = load i1, ptr %6, align 1
  br i1 %21, label %22, label %23

22:                                               ; preds = %20
  call void @_ZNSaIcED1Ev(ptr noundef nonnull align 1 dereferenceable(1) %5) #17
  br label %23

23:                                               ; preds = %22, %20
  ret void

24:                                               ; preds = %13
  %25 = landingpad { ptr, i32 }
          cleanup
  %26 = extractvalue { ptr, i32 } %25, 0
  store ptr %26, ptr %7, align 8
  %27 = extractvalue { ptr, i32 } %25, 1
  store i32 %27, ptr %8, align 4
  %28 = load i1, ptr %6, align 1
  br i1 %28, label %29, label %30

29:                                               ; preds = %24
  call void @_ZNSaIcED1Ev(ptr noundef nonnull align 1 dereferenceable(1) %5) #17
  br label %30

30:                                               ; preds = %29, %24
  br label %31

31:                                               ; preds = %30
  %32 = load ptr, ptr %7, align 8
  %33 = load i32, ptr %8, align 4
  %34 = insertvalue { ptr, i32 } poison, ptr %32, 0
  %35 = insertvalue { ptr, i32 } %34, i32 %33, 1
  resume { ptr, i32 } %35
}

; Function Attrs: mustprogress nounwind uwtable
define linkonce_odr dso_local noundef ptr @_ZNK4Node7in_edgeEv(ptr noundef nonnull align 8 dereferenceable(116) %0) #11 comdat align 2 {
  %2 = alloca ptr, align 8
  store ptr %0, ptr %2, align 8
  %3 = load ptr, ptr %2, align 8
  %4 = getelementptr inbounds %struct.Node, ptr %3, i32 0, i32 8
  %5 = load ptr, ptr %4, align 8
  ret ptr %5
}

; Function Attrs: mustprogress uwtable
define internal noundef zeroext i1 @_ZNK12_GLOBAL__N_19NinjaMain10IsPathDeadE11StringPiece(ptr noundef nonnull align 8 dereferenceable(536) %0, ptr %1, i64 %2) unnamed_addr #2 align 2 personality ptr @__gxx_personality_v0 {
  %4 = alloca i1, align 1
  %5 = alloca %struct.StringPiece, align 8
  %6 = alloca ptr, align 8
  %7 = alloca ptr, align 8
  %8 = alloca %struct.StringPiece, align 8
  %9 = alloca %"class.std::__cxx11::basic_string", align 8
  %10 = alloca i64, align 8
  %11 = alloca %"class.std::__cxx11::basic_string", align 8
  %12 = alloca ptr, align 8
  %13 = alloca i32, align 4
  %14 = getelementptr inbounds { ptr, i64 }, ptr %5, i32 0, i32 0
  store ptr %1, ptr %14, align 8
  %15 = getelementptr inbounds { ptr, i64 }, ptr %5, i32 0, i32 1
  store i64 %2, ptr %15, align 8
  store ptr %0, ptr %6, align 8
  %16 = load ptr, ptr %6, align 8
  %17 = getelementptr inbounds %"struct.(anonymous namespace)::NinjaMain", ptr %16, i32 0, i32 3
  call void @llvm.memcpy.p0.p0.i64(ptr align 8 %8, ptr align 8 %5, i64 16, i1 false)
  %18 = getelementptr inbounds { ptr, i64 }, ptr %8, i32 0, i32 0
  %19 = load ptr, ptr %18, align 8
  %20 = getelementptr inbounds { ptr, i64 }, ptr %8, i32 0, i32 1
  %21 = load i64, ptr %20, align 8
  %22 = call noundef ptr @_ZNK5State10LookupNodeE11StringPiece(ptr noundef nonnull align 8 dereferenceable(264) %17, ptr %19, i64 %21)
  store ptr %22, ptr %7, align 8
  %23 = load ptr, ptr %7, align 8
  %24 = icmp ne ptr %23, null
  br i1 %24, label %25, label %30

25:                                               ; preds = %3
  %26 = load ptr, ptr %7, align 8
  %27 = call noundef ptr @_ZNK4Node7in_edgeEv(ptr noundef nonnull align 8 dereferenceable(116) %26)
  %28 = icmp ne ptr %27, null
  br i1 %28, label %29, label %30

29:                                               ; preds = %25
  store i1 false, ptr %4, align 1
  br label %52

30:                                               ; preds = %25, %3
  call void @_ZNSt7__cxx1112basic_stringIcSt11char_traitsIcESaIcEEC1Ev(ptr noundef nonnull align 8 dereferenceable(32) %9) #17
  %31 = getelementptr inbounds %"struct.(anonymous namespace)::NinjaMain", ptr %16, i32 0, i32 4
  invoke void @_ZNK11StringPiece8AsStringB5cxx11Ev(ptr dead_on_unwind writable sret(%"class.std::__cxx11::basic_string") align 8 %11, ptr noundef nonnull align 8 dereferenceable(16) %5)
          to label %32 unwind label %40

32:                                               ; preds = %30
  %33 = invoke noundef i64 @_ZNK17RealDiskInterface4StatERKNSt7__cxx1112basic_stringIcSt11char_traitsIcESaIcEEEPS5_(ptr noundef nonnull align 8 dereferenceable(8) %31, ptr noundef nonnull align 8 dereferenceable(32) %11, ptr noundef %9)
          to label %34 unwind label %44

34:                                               ; preds = %32
  call void @_ZNSt7__cxx1112basic_stringIcSt11char_traitsIcESaIcEED1Ev(ptr noundef nonnull align 8 dereferenceable(32) %11) #17
  store i64 %33, ptr %10, align 8
  %35 = load i64, ptr %10, align 8
  %36 = icmp eq i64 %35, -1
  br i1 %36, label %37, label %48

37:                                               ; preds = %34
  %38 = call noundef ptr @_ZNKSt7__cxx1112basic_stringIcSt11char_traitsIcESaIcEE5c_strEv(ptr noundef nonnull align 8 dereferenceable(32) %9) #17
  invoke void (ptr, ...) @_Z5ErrorPKcz(ptr noundef @.str.3, ptr noundef %38)
          to label %39 unwind label %40

39:                                               ; preds = %37
  br label %48

40:                                               ; preds = %37, %30
  %41 = landingpad { ptr, i32 }
          cleanup
  %42 = extractvalue { ptr, i32 } %41, 0
  store ptr %42, ptr %12, align 8
  %43 = extractvalue { ptr, i32 } %41, 1
  store i32 %43, ptr %13, align 4
  br label %51

44:                                               ; preds = %32
  %45 = landingpad { ptr, i32 }
          cleanup
  %46 = extractvalue { ptr, i32 } %45, 0
  store ptr %46, ptr %12, align 8
  %47 = extractvalue { ptr, i32 } %45, 1
  store i32 %47, ptr %13, align 4
  call void @_ZNSt7__cxx1112basic_stringIcSt11char_traitsIcESaIcEED1Ev(ptr noundef nonnull align 8 dereferenceable(32) %11) #17
  br label %51

48:                                               ; preds = %39, %34
  %49 = load i64, ptr %10, align 8
  %50 = icmp eq i64 %49, 0
  store i1 %50, ptr %4, align 1
  call void @_ZNSt7__cxx1112basic_stringIcSt11char_traitsIcESaIcEED1Ev(ptr noundef nonnull align 8 dereferenceable(32) %9) #17
  br label %52

51:                                               ; preds = %44, %40
  call void @_ZNSt7__cxx1112basic_stringIcSt11char_traitsIcESaIcEED1Ev(ptr noundef nonnull align 8 dereferenceable(32) %9) #17
  br label %54

52:                                               ; preds = %48, %29
  %53 = load i1, ptr %4, align 1
  ret i1 %53

54:                                               ; preds = %51
  %55 = load ptr, ptr %12, align 8
  %56 = load i32, ptr %13, align 4
  %57 = insertvalue { ptr, i32 } poison, ptr %55, 0
  %58 = insertvalue { ptr, i32 } %57, i32 %56, 1
  resume { ptr, i32 } %58
}