; Function Attrs: mustprogress uwtable
define internal noundef zeroext i1 @_ZNK12_GLOBAL__N_19NinjaMain10IsPathDeadE11StringPiece(ptr noundef nonnull align 8 dereferenceable(536) %0, ptr %1, i64 %2) unnamed_addr #12 align 2 personality ptr @__gxx_personality_v0 {
  %4 = alloca %"class.std::allocator", align 1
  %5 = alloca %"class.std::__cxx11::basic_string", align 8
  %6 = alloca %"class.std::__cxx11::basic_string", align 8
  %7 = getelementptr inbounds i8, ptr %0, i64 24
  %8 = tail call noundef ptr @_ZNK5State10LookupNodeE11StringPiece(ptr noundef nonnull align 8 dereferenceable(264) %7, ptr %1, i64 %2)
  %.not = icmp eq ptr %8, null
  br i1 %.not, label %12, label %9

9:                                                ; preds = %3
  %10 = getelementptr inbounds i8, ptr %8, i64 56
  %11 = load ptr, ptr %10, align 8
  %.not10 = icmp eq ptr %11, null
  br i1 %.not10, label %12, label %30

12:                                               ; preds = %9, %3
  call void @_ZNSt7__cxx1112basic_stringIcSt11char_traitsIcESaIcEEC1Ev(ptr noundef nonnull align 8 dereferenceable(32) %5) #26
  call void @llvm.lifetime.start.p0(i64 1, ptr nonnull %4)
  %.not.not.i = icmp eq i64 %2, 0
  br i1 %.not.not.i, label %.thread.i, label %13

13:                                               ; preds = %12
  call void @_ZNSaIcEC1Ev(ptr noundef nonnull align 1 dereferenceable(1) %4) #26, !noalias !78
  invoke void @_ZNSt7__cxx1112basic_stringIcSt11char_traitsIcESaIcEEC1EPKcmRKS3_(ptr noundef nonnull align 8 dereferenceable(32) %6, ptr noundef %1, i64 noundef %2, ptr noundef nonnull align 1 dereferenceable(1) %4)
          to label %14 unwind label %15

.thread.i:                                        ; preds = %12
  call void @_ZNSt7__cxx1112basic_stringIcSt11char_traitsIcESaIcEEC1Ev(ptr noundef nonnull align 8 dereferenceable(32) %6) #26
  br label %17

14:                                               ; preds = %13
  call void @_ZNSaIcED1Ev(ptr noundef nonnull align 1 dereferenceable(1) %4) #26
  br label %17

15:                                               ; preds = %13
  %16 = landingpad { ptr, i32 }
          cleanup
  call void @_ZNSaIcED1Ev(ptr noundef nonnull align 1 dereferenceable(1) %4) #26
  br label %.body

17:                                               ; preds = %14, %.thread.i
  call void @llvm.lifetime.end.p0(i64 1, ptr nonnull %4)
  %18 = getelementptr inbounds i8, ptr %0, i64 288
  %19 = invoke noundef i64 @_ZNK17RealDiskInterface4StatERKNSt7__cxx1112basic_stringIcSt11char_traitsIcESaIcEEEPS5_(ptr noundef nonnull align 8 dereferenceable(8) %18, ptr noundef nonnull align 8 dereferenceable(32) %6, ptr noundef nonnull %5)
          to label %20 unwind label %26

20:                                               ; preds = %17
  call void @_ZNSt7__cxx1112basic_stringIcSt11char_traitsIcESaIcEED1Ev(ptr noundef nonnull align 8 dereferenceable(32) %6) #26
  %21 = icmp eq i64 %19, -1
  br i1 %21, label %22, label %28

22:                                               ; preds = %20
  %23 = call noundef ptr @_ZNKSt7__cxx1112basic_stringIcSt11char_traitsIcESaIcEE5c_strEv(ptr noundef nonnull align 8 dereferenceable(32) %5) #26
  invoke void (ptr, ...) @_Z5ErrorPKcz(ptr noundef nonnull @.str.3, ptr noundef %23)
          to label %28 unwind label %24

24:                                               ; preds = %22
  %25 = landingpad { ptr, i32 }
          cleanup
  br label %.body

26:                                               ; preds = %17
  %27 = landingpad { ptr, i32 }
          cleanup
  call void @_ZNSt7__cxx1112basic_stringIcSt11char_traitsIcESaIcEED1Ev(ptr noundef nonnull align 8 dereferenceable(32) %6) #26
  br label %.body

28:                                               ; preds = %22, %20
  %29 = icmp eq i64 %19, 0
  call void @_ZNSt7__cxx1112basic_stringIcSt11char_traitsIcESaIcEED1Ev(ptr noundef nonnull align 8 dereferenceable(32) %5) #26
  br label %30

.body:                                            ; preds = %24, %15, %26
  %.pn = phi { ptr, i32 } [ %27, %26 ], [ %25, %24 ], [ %16, %15 ]
  call void @_ZNSt7__cxx1112basic_stringIcSt11char_traitsIcESaIcEED1Ev(ptr noundef nonnull align 8 dereferenceable(32) %5) #26
  resume { ptr, i32 } %.pn

30:                                               ; preds = %9, %28
  %.08 = phi i1 [ %29, %28 ], [ false, %9 ]
  ret i1 %.08
}